target datalayout = "e-m:e-p270:32:32-p271:32:32-p272:64:64-i64:64-i128:128-f80:128-n8:16:32:64-S128"
target triple = "x86_64-pc-linux-gnu"

%struct.SResource = type { ptr, i8, i8, i32, i32, i32, i32, i32, ptr, %struct.UString }
%struct.UString = type { ptr, i32, i32 }
%"class.icu_77::UnicodeString" = type { %"class.icu_77::Replaceable", %"union.icu_77::UnicodeString::StackBufferOrFields" }
%"class.icu_77::Replaceable" = type { %"class.icu_77::UObject" }
%"class.icu_77::UObject" = type { ptr }
%"union.icu_77::UnicodeString::StackBufferOrFields" = type { %struct.anon.0, [32 x i8] }
%struct.anon.0 = type { i16, i32, i32, ptr }
%class.StringBaseResource = type { %struct.SResource, %"class.icu_77::UnicodeString" }
%class.StringResource = type <{ %class.StringBaseResource, ptr, i32, i32, i32, i8, [3 x i8] }>
%"class.icu_77::LocalPointer.3" = type { %"class.icu_77::LocalPointerBase.4" }
%"class.icu_77::LocalPointerBase.4" = type { ptr }

; Function Attrs: mustprogress nounwind uwtable
define linkonce_odr dso_local void @_ZN6icu_7716LocalPointerBaseI9SResourceED2Ev(ptr noundef nonnull align 8 dereferenceable(8) %0) unnamed_addr #4 comdat align 2 {
  %2 = alloca ptr, align 8
  store ptr %0, ptr %2, align 8, !tbaa !194
  ret void
}

; Function Attrs: mustprogress nounwind uwtable
define linkonce_odr dso_local void @_ZN6icu_7716LocalPointerBaseI9SResourceEC2EPS1_(ptr noundef nonnull align 8 dereferenceable(8) %0, ptr noundef %1) unnamed_addr #4 comdat align 2 {
  %3 = alloca ptr, align 8
  %4 = alloca ptr, align 8
  store ptr %0, ptr %3, align 8, !tbaa !194
  store ptr %1, ptr %4, align 8, !tbaa !24
  %5 = load ptr, ptr %3, align 8
  %6 = getelementptr inbounds nuw %"class.icu_77::LocalPointerBase.4", ptr %5, i32 0, i32 0
  %7 = load ptr, ptr %4, align 8, !tbaa !24
  store ptr %7, ptr %6, align 8, !tbaa !196
  ret void
}

; Function Attrs: mustprogress nounwind uwtable
define linkonce_odr dso_local void @_ZN6icu_7712LocalPointerI9SResourceED2Ev(ptr noundef nonnull align 8 dereferenceable(8) %0) unnamed_addr #4 comdat align 2 {
  %2 = alloca ptr, align 8
  store ptr %0, ptr %2, align 8, !tbaa !192
  %3 = load ptr, ptr %2, align 8
  %4 = getelementptr inbounds nuw %"class.icu_77::LocalPointerBase.4", ptr %3, i32 0, i32 0
  %5 = load ptr, ptr %4, align 8, !tbaa !196
  %6 = icmp eq ptr %5, null
  br i1 %6, label %11, label %7

7:                                                ; preds = %1
  %8 = load ptr, ptr %5, align 8, !tbaa !26
  %9 = getelementptr inbounds ptr, ptr %8, i64 1
  %10 = load ptr, ptr %9, align 8
  call void %10(ptr noundef nonnull align 8 dereferenceable(56) %5) #3
  br label %11

11:                                               ; preds = %7, %1
  call void @_ZN6icu_7716LocalPointerBaseI9SResourceED2Ev(ptr noundef nonnull align 8 dereferenceable(8) %3) #3
  ret void
}

; Function Attrs: mustprogress nounwind uwtable
define linkonce_odr dso_local noundef ptr @_ZN6icu_7716LocalPointerBaseI9SResourceE6orphanEv(ptr noundef nonnull align 8 dereferenceable(8) %0) #4 comdat align 2 {
  %2 = alloca ptr, align 8
  %3 = alloca ptr, align 8
  store ptr %0, ptr %2, align 8, !tbaa !194
  %4 = load ptr, ptr %2, align 8
  call void @llvm.lifetime.start.p0(i64 8, ptr %3) #3
  %5 = getelementptr inbounds nuw %"class.icu_77::LocalPointerBase.4", ptr %4, i32 0, i32 0
  %6 = load ptr, ptr %5, align 8, !tbaa !196
  store ptr %6, ptr %3, align 8, !tbaa !24
  %7 = getelementptr inbounds nuw %"class.icu_77::LocalPointerBase.4", ptr %4, i32 0, i32 0
  store ptr null, ptr %7, align 8, !tbaa !196
  %8 = load ptr, ptr %3, align 8, !tbaa !24
  call void @llvm.lifetime.end.p0(i64 8, ptr %3) #3
  ret ptr %8
}

; Function Attrs: inlinehint mustprogress nounwind uwtable
define internal noundef signext i8 @_ZL9U_SUCCESS10UErrorCode(i32 noundef %0) #9 {
  %2 = alloca i32, align 4
  store i32 %0, ptr %2, align 4, !tbaa !45
  %3 = load i32, ptr %2, align 4, !tbaa !45
  %4 = icmp sle i32 %3, 0
  %5 = zext i1 %4 to i8
  ret i8 %5
}

; Function Attrs: mustprogress uwtable
define linkonce_odr dso_local void @_ZN6icu_7712LocalPointerI9SResourceEC2EPS1_R10UErrorCode(ptr noundef nonnull align 8 dereferenceable(8) %0, ptr noundef %1, ptr noundef nonnull align 4 dereferenceable(4) %2) unnamed_addr #5 comdat align 2 {
  %4 = alloca ptr, align 8
  %5 = alloca ptr, align 8
  %6 = alloca ptr, align 8
  store ptr %0, ptr %4, align 8, !tbaa !192
  store ptr %1, ptr %5, align 8, !tbaa !24
  store ptr %2, ptr %6, align 8, !tbaa !44
  %7 = load ptr, ptr %4, align 8
  %8 = load ptr, ptr %5, align 8, !tbaa !24
  call void @_ZN6icu_7716LocalPointerBaseI9SResourceEC2EPS1_(ptr noundef nonnull align 8 dereferenceable(8) %7, ptr noundef %8)
  %9 = load ptr, ptr %5, align 8, !tbaa !24
  %10 = icmp eq ptr %9, null
  br i1 %10, label %11, label %18

11:                                               ; preds = %3
  %12 = load ptr, ptr %6, align 8, !tbaa !44
  %13 = load i32, ptr %12, align 4, !tbaa !45
  %14 = call noundef signext i8 @_ZL9U_SUCCESS10UErrorCode(i32 noundef %13)
  %15 = icmp ne i8 %14, 0
  br i1 %15, label %16, label %18

16:                                               ; preds = %11
  %17 = load ptr, ptr %6, align 8, !tbaa !44
  store i32 7, ptr %17, align 4, !tbaa !45
  br label %18

18:                                               ; preds = %16, %11, %3
  ret void
}

; Function Attrs: mustprogress uwtable
define linkonce_odr dso_local void @_ZN14StringResourceC2EP7SRBRootPKcPKDsiPK7UStringR10UErrorCode(ptr noundef nonnull align 8 dereferenceable(141) %0, ptr noundef %1, ptr noundef %2, ptr noundef %3, i32 noundef %4, ptr noundef %5, ptr noundef nonnull align 4 dereferenceable(4) %6) unnamed_addr #5 comdat align 2 {
  %8 = alloca ptr, align 8
  %9 = alloca ptr, align 8
  %10 = alloca ptr, align 8
  %11 = alloca ptr, align 8
  %12 = alloca i32, align 4
  %13 = alloca ptr, align 8
  %14 = alloca ptr, align 8
  store ptr %0, ptr %8, align 8, !tbaa !81
  store ptr %1, ptr %9, align 8, !tbaa !39
  store ptr %2, ptr %10, align 8, !tbaa !41
  store ptr %3, ptr %11, align 8, !tbaa !73
  store i32 %4, ptr %12, align 4, !tbaa !23
  store ptr %5, ptr %13, align 8, !tbaa !42
  store ptr %6, ptr %14, align 8, !tbaa !44
  %15 = load ptr, ptr %8, align 8
  %16 = load ptr, ptr %9, align 8, !tbaa !39
  %17 = load ptr, ptr %10, align 8, !tbaa !41
  %18 = load ptr, ptr %11, align 8, !tbaa !73
  %19 = load i32, ptr %12, align 4, !tbaa !23
  %20 = load ptr, ptr %13, align 8, !tbaa !42
  %21 = load ptr, ptr %14, align 8, !tbaa !44
  call void @_ZN18StringBaseResourceC2EP7SRBRootPKcaPKDsiPK7UStringR10UErrorCode(ptr noundef nonnull align 8 dereferenceable(120) %15, ptr noundef %16, ptr noundef %17, i8 noundef signext 0, ptr noundef %18, i32 noundef %19, ptr noundef %20, ptr noundef nonnull align 4 dereferenceable(4) %21)
  store ptr getelementptr inbounds inrange(-16, 64) ({ [10 x ptr] }, ptr @_ZTV14StringResource, i32 0, i32 0, i32 2), ptr %15, align 8, !tbaa !26
  %22 = getelementptr inbounds nuw %class.StringResource, ptr %15, i32 0, i32 1
  store ptr null, ptr %22, align 8, !tbaa !105
  %23 = getelementptr inbounds nuw %class.StringResource, ptr %15, i32 0, i32 2
  store i32 0, ptr %23, align 8, !tbaa !172
  %24 = getelementptr inbounds nuw %class.StringResource, ptr %15, i32 0, i32 3
  store i32 0, ptr %24, align 4, !tbaa !108
  %25 = getelementptr inbounds nuw %class.StringResource, ptr %15, i32 0, i32 4
  store i32 0, ptr %25, align 8, !tbaa !142
  %26 = getelementptr inbounds nuw %class.StringResource, ptr %15, i32 0, i32 5
  store i8 0, ptr %26, align 4, !tbaa !111
  ret void
}

; Function Attrs: mustprogress uwtable
define dso_local ptr @string_open(ptr noundef %0, ptr noundef %1, ptr noundef %2, i32 noundef %3, ptr noundef %4, ptr noundef %5) #5 personality ptr @__gxx_personality_v0 {
  %7 = alloca ptr, align 8
  %8 = alloca ptr, align 8
  %9 = alloca ptr, align 8
  %10 = alloca i32, align 4
  %11 = alloca ptr, align 8
  %12 = alloca ptr, align 8
  %13 = alloca %"class.icu_77::LocalPointer.3", align 8
  %14 = alloca ptr, align 8
  %15 = alloca i32, align 4
  store ptr %0, ptr %7, align 8, !tbaa !39
  store ptr %1, ptr %8, align 8, !tbaa !41
  store ptr %2, ptr %9, align 8, !tbaa !73
  store i32 %3, ptr %10, align 4, !tbaa !23
  store ptr %4, ptr %11, align 8, !tbaa !42
  store ptr %5, ptr %12, align 8, !tbaa !44
  call void @llvm.lifetime.start.p0(i64 8, ptr %13) #3
  %16 = call noalias noundef nonnull ptr @_Znwm(i64 noundef 144) #24
  %17 = load ptr, ptr %7, align 8, !tbaa !39
  %18 = load ptr, ptr %8, align 8, !tbaa !41
  %19 = load ptr, ptr %9, align 8, !tbaa !73
  %20 = load i32, ptr %10, align 4, !tbaa !23
  %21 = load ptr, ptr %11, align 8, !tbaa !42
  %22 = load ptr, ptr %12, align 8, !tbaa !44
  invoke void @_ZN14StringResourceC2EP7SRBRootPKcPKDsiPK7UStringR10UErrorCode(ptr noundef nonnull align 8 dereferenceable(141) %16, ptr noundef %17, ptr noundef %18, ptr noundef %19, i32 noundef %20, ptr noundef %21, ptr noundef nonnull align 4 dereferenceable(4) %22)
          to label %23 unwind label %36

23:                                               ; preds = %6
  %24 = load ptr, ptr %12, align 8, !tbaa !44
  call void @_ZN6icu_7712LocalPointerI9SResourceEC2EPS1_R10UErrorCode(ptr noundef nonnull align 8 dereferenceable(8) %13, ptr noundef %16, ptr noundef nonnull align 4 dereferenceable(4) %24)
  %25 = load ptr, ptr %12, align 8, !tbaa !44
  %26 = load i32, ptr %25, align 4, !tbaa !45
  %27 = invoke noundef signext i8 @_ZL9U_SUCCESS10UErrorCode(i32 noundef %26)
          to label %28 unwind label %40

28:                                               ; preds = %23
  %29 = icmp ne i8 %27, 0
  br i1 %29, label %30, label %33

30:                                               ; preds = %28
  %31 = invoke noundef ptr @_ZN6icu_7716LocalPointerBaseI9SResourceE6orphanEv(ptr noundef nonnull align 8 dereferenceable(8) %13)
          to label %32 unwind label %40

32:                                               ; preds = %30
  br label %34

33:                                               ; preds = %28
  br label %34

34:                                               ; preds = %33, %32
  %35 = phi ptr [ %31, %32 ], [ null, %33 ]
  call void @_ZN6icu_7712LocalPointerI9SResourceED2Ev(ptr noundef nonnull align 8 dereferenceable(8) %13) #3
  call void @llvm.lifetime.end.p0(i64 8, ptr %13) #3
  ret ptr %35

36:                                               ; preds = %6
  %37 = landingpad { ptr, i32 }
          cleanup
  %38 = extractvalue { ptr, i32 } %37, 0
  store ptr %38, ptr %14, align 8
  %39 = extractvalue { ptr, i32 } %37, 1
  store i32 %39, ptr %15, align 4
  call void @_ZdlPvm(ptr noundef %16, i64 noundef 144) #23
  br label %44

40:                                               ; preds = %30, %23
  %41 = landingpad { ptr, i32 }
          cleanup
  %42 = extractvalue { ptr, i32 } %41, 0
  store ptr %42, ptr %14, align 8
  %43 = extractvalue { ptr, i32 } %41, 1
  store i32 %43, ptr %15, align 4
  call void @_ZN6icu_7712LocalPointerI9SResourceED2Ev(ptr noundef nonnull align 8 dereferenceable(8) %13) #3
  br label %44

44:                                               ; preds = %40, %36
  call void @llvm.lifetime.end.p0(i64 8, ptr %13) #3
  br label %45

45:                                               ; preds = %44
  %46 = load ptr, ptr %14, align 8
  %47 = load i32, ptr %15, align 4
  %48 = insertvalue { ptr, i32 } poison, ptr %46, 0
  %49 = insertvalue { ptr, i32 } %48, i32 %47, 1
  resume { ptr, i32 } %49
}