; Function Attrs: mustprogress uwtable
define dso_local noundef ptr @string_open(ptr noundef %0, ptr noundef %1, ptr noundef %2, i32 noundef %3, ptr noundef %4, ptr noundef %5) local_unnamed_addr #7 personality ptr @__gxx_personality_v0 {
  %7 = tail call noalias noundef nonnull dereferenceable(144) ptr @_Znwm(i64 noundef 144) #36
  invoke void @_ZN18StringBaseResourceC2EP7SRBRootPKcaPKDsiPK7UStringR10UErrorCode(ptr noundef nonnull align 8 dereferenceable(141) %7, ptr noundef %0, ptr noundef %1, i8 noundef signext 0, ptr noundef %2, i32 noundef %3, ptr noundef %4, ptr noundef nonnull align 4 dereferenceable(4) %5)
          to label %8 unwind label %19

8:                                                ; preds = %6
  store ptr getelementptr inbounds nuw inrange(-16, 64) (i8, ptr @_ZTV14StringResource, i64 16), ptr %7, align 8, !tbaa !9
  %9 = getelementptr inbounds nuw i8, ptr %7, i64 120
  tail call void @llvm.memset.p0.i64(ptr noundef nonnull align 8 dereferenceable(21) %9, i8 0, i64 21, i1 false)
  %10 = load i32, ptr %5, align 4
  %11 = icmp sgt i32 %10, 0
  br i1 %11, label %12, label %_ZN6icu_7712LocalPointerI9SResourceED2Ev.exit

12:                                               ; preds = %8
  store ptr getelementptr inbounds nuw inrange(-16, 64) (i8, ptr @_ZTV18StringBaseResource, i64 16), ptr %7, align 8, !tbaa !9
  %13 = getelementptr inbounds nuw i8, ptr %7, i64 56
  tail call void @_ZN6icu_7713UnicodeStringD1Ev(ptr noundef nonnull align 8 dereferenceable(64) %13) #34
  store ptr getelementptr inbounds nuw inrange(-16, 64) (i8, ptr @_ZTV9SResource, i64 16), ptr %7, align 8, !tbaa !9
  %14 = getelementptr inbounds nuw i8, ptr %7, i64 40
  invoke void @ustr_deinit(ptr noundef nonnull %14)
          to label %_ZN14StringResourceD0Ev.exit unwind label %15

15:                                               ; preds = %12
  %16 = landingpad { ptr, i32 }
          catch ptr null
  %17 = extractvalue { ptr, i32 } %16, 0
  tail call void @__clang_call_terminate(ptr %17) #31
  unreachable

_ZN14StringResourceD0Ev.exit:                     ; preds = %12
  tail call void @_ZdlPvm(ptr noundef nonnull align 8 dereferenceable(56) %7, i64 noundef 144) #35
  br label %_ZN6icu_7712LocalPointerI9SResourceED2Ev.exit

_ZN6icu_7712LocalPointerI9SResourceED2Ev.exit:    ; preds = %8, %_ZN14StringResourceD0Ev.exit
  %18 = phi ptr [ null, %_ZN14StringResourceD0Ev.exit ], [ %7, %8 ]
  ret ptr %18

19:                                               ; preds = %6
  %20 = landingpad { ptr, i32 }
          cleanup
  tail call void @_ZdlPvm(ptr noundef nonnull %7, i64 noundef 144) #35
  resume { ptr, i32 } %20
}